(dp0
VAlto
p1
(lp2
(lp3
S'Ding_Dong_Merrily_On_High_Voice_SAB_3_verses.xml'
p4
aVpart-name
p5
a(dp6
aa(lp7
S'Le_Divin_Enfant_voice_SAB.xml'
p8
aVpart-name
p9
a(dp10
aasVViola
p11
(lp12
(lp13
S'ActorPreludeSample.xml'
p14
aVpart-name
p15
a(dp16
aa(lp17
S'TwinkleTwinkle_Little_Star.xml'
p18
aVpart-name
p19
a(dp20
aasVTimpani
p21
(lp22
(lp23
g14
aVpart-name
p24
a(dp25
aasV            
p26
(lp27
(lp28
g14
aVpart-name
p29
a(dp30
aa(lp31
g14
aVpart-name
p32
a(dp33
aa(lp34
g14
aVpart-name
p35
a(dp36
aasVTuba
p37
(lp38
(lp39
g14
aVpart-name
p40
a(dp41
aasVAlto Saxophone
p42
(lp43
(lp44
S'Cant_Take_My_Eyes_Off_You.xml'
p45
aVpart-name
p46
a(dp47
aasVBassoons
p48
(lp49
(lp50
g14
aVpart-name
p51
a(dp52
aasVEnglish Horn
p53
(lp54
(lp55
g14
aVpart-name
p56
a(dp57
aasVTrumpets in C
p58
(lp59
(lp60
g14
aVpart-name
p61
a(dp62
aasVPiano
p63
(lp64
(lp65
S'Am_I_Wrong.xml'
p66
aVpart-name
p67
a(dp68
aa(lp69
S'Ib_-_Little_Dolls_Dream_Piano.xml'
p70
aVpart-name
p71
a(dp72
aa(lp73
S'khiohio.xml'
p74
aVpart-name
p75
a(dp76
aasVClarinets in Bb
p77
(lp78
(lp79
g14
aVpart-name
p80
a(dp81
aasVB\ue10d Tuba
p82
(lp83
(lp84
g45
aVpart-name
p85
a(dp86
aasV                2
p87
(lp88
(lp89
g14
ag29
ag30
aa(lp90
g14
ag35
ag36
aasV                4
p91
(lp92
(lp93
g14
ag32
ag33
aasVLee Actor
p94
(lp95
(lp96
g14
aVcreator
p97
a(dp98
Vtype
p99
Vcomposer
p100
saasV1
p101
(lp102
(lp103
g14
ag29
ag30
aa(lp104
g14
ag35
ag36
aa(lp105
g14
aVpart-name
p106
a(dp107
aasV3
p108
(lp109
(lp110
g14
ag32
ag33
aa(lp111
g14
aVpart-name
p112
a(dp113
aasV2
p114
(lp115
(lp116
g14
aVpart-name
p117
a(dp118
aasVPrelude to a Tragedy
p119
(lp120
(lp121
g14
aVmovement-title
p122
a(dp123
aasVSoprano Saxophone
p124
(lp125
(lp126
g66
aVpart-name
p127
a(dp128
aasVBass Clarinet in Bb
p129
(lp130
(lp131
g14
aVpart-name
p132
a(dp133
aasV\u000a
p134
(lp135
(lp136
g14
ag29
ag30
aa(lp137
g14
ag29
ag30
aa(lp138
g14
ag32
ag33
aa(lp139
g14
ag32
ag33
aa(lp140
g14
ag35
ag36
aa(lp141
g14
ag35
ag36
aasVB\ue10d Trumpet
p142
(lp143
(lp144
g45
aVpart-name
p145
a(dp146
aa(lp147
g45
aVpart-name
p148
a(dp149
aasVSoprano
p150
(lp151
(lp152
g4
aVpart-name
p153
a(dp154
aa(lp155
g8
aVpart-name
p156
a(dp157
aasVVioloncello
p158
(lp159
(lp160
g14
aVpart-name
p161
a(dp162
aasVContrabass
p163
(lp164
(lp165
g14
aVpart-name
p166
a(dp167
aasVBaritone B.C.
p168
(lp169
(lp170
g45
aVpart-name
p171
a(dp172
aasVViolin I
p173
(lp174
(lp175
g14
aVpart-name
p176
a(dp177
aasVF Mellophone
p178
(lp179
(lp180
g45
aVpart-name
p181
a(dp182
aasVViolin II
p183
(lp184
(lp185
g14
aVpart-name
p186
a(dp187
aasVOboes
p188
(lp189
(lp190
g14
aVpart-name
p191
a(dp192
aasVViolins 2
p193
(lp194
(lp195
g18
aVpart-name
p196
a(dp197
aasVViolins 1
p198
(lp199
(lp200
g18
aVpart-name
p201
a(dp202
aa(lp203
g18
aVpart-name
p204
a(dp205
aasVPiccolo
p206
(lp207
(lp208
g14
aVpart-name
p209
a(dp210
aa(lp211
g45
aVpart-name
p212
a(dp213
aasVBaritone T.C.
p214
(lp215
(lp216
g45
aVpart-name
p217
a(dp218
aasVB\ue10d Clarinet
p219
(lp220
(lp221
g45
aVpart-name
p222
a(dp223
aasVTrombone
p224
(lp225
(lp226
g45
aVpart-name
p227
a(dp228
aa(lp229
g45
aVpart-name
p230
a(dp231
aasVViolin
p232
(lp233
(lp234
g66
aVpart-name
p235
a(dp236
aasVBass Drum
p237
(lp238
(lp239
g66
aVpart-name
p240
a(dp241
aasVFlutes
p242
(lp243
(lp244
g14
aVpart-name
p245
a(dp246
aasVBass
p247
(lp248
(lp249
g4
aVpart-name
p250
a(dp251
aa(lp252
g8
aVpart-name
p253
a(dp254
aasVHarp
p255
(lp256
(lp257
g14
aVpart-name
p258
a(dp259
aas.(dp0
VAlto
p1
(lp2
(lp3
S'Ding_Dong_Merrily_On_High_Voice_SAB_3_verses.xml'
p4
aVpart-name
p5
a(dp6
aa(lp7
S'Le_Divin_Enfant_voice_SAB.xml'
p8
aVpart-name
p9
a(dp10
aasVViola
p11
(lp12
(lp13
S'ActorPreludeSample.xml'
p14
aVpart-name
p15
a(dp16
aa(lp17
S'TwinkleTwinkle_Little_Star.xml'
p18
aVpart-name
p19
a(dp20
aasV\u000a
p21
(lp22
(lp23
g14
aVpart-name
p24
a(dp25
aasV            
p26
(lp27
(lp28
g14
ag24
ag25
aasVTuba
p29
(lp30
(lp31
g14
aVpart-name
p32
a(dp33
aasVAlto Saxophone
p34
(lp35
(lp36
S'Cant_Take_My_Eyes_Off_You.xml'
p37
aVpart-name
p38
a(dp39
aasVBassoons
p40
(lp41
(lp42
g14
aVpart-name
p43
a(dp44
aasVEnglish Horn
p45
(lp46
(lp47
g14
aVpart-name
p48
a((dp0
VAlto
p1
(lp2
(lp3
S'Ding_Dong_Merrily_On_High_Voice_SAB_3_verses.xml'
p4
aVpart-name
p5
a(dp6
aa(lp7
S'Le_Divin_Enfant_voice_SAB.xml'
p8
aVpart-name
p9
a(dp10
aasVViola
p11
(lp12
(lp13
S'ActorPreludeSample.xml'
p14
aVpart-name
p15
a(dp16
aa(lp17
S'TwinkleTwinkle_Little_Star.xml'
p18
aVpart-name
p19
a(dp20
aasV\u000a
p21
(lp22
(lp23
g14
aVpart-name
p24
a(dp25
aasV            
p26
(lp27
(lp28
g14
ag24
ag25
aasVTuba
p29
(lp30
(lp31
g14
aVpart-name
p32
a(dp33
aasVAlto Saxophone
p34
(lp35
(lp36
S'Cant_Take_My_Eyes_Off_You.xml'
p37
aVpart-name
p38
a(dp39
aasVBassoons
p40
(lp41
(lp42
g14
aVpart-name
p43
a(dp44
aasVEnglish Horn
p45
(lp46
(lp47
g14
aVpart-name
p48
a(dp49
aasVTrumpets in C
p50
(lp51
(lp52
g14
aVpart-name
p53
a(dp54
aasVPiano
p55
(lp56
(lp57
S'Am_I_Wrong.xml'
p58
aVpart-name
p59
a(dp60
aa(lp61
S'Ib_-_Little_Dolls_Dream_Piano.xml'
p62
aVpart-name
p63
a(dp64
aa(lp65
S'khiohio.xml'
p66
aVpart-name
p67
a(dp68
aasVClarinets in Bb
p69
(lp70
(lp71
g14
aVpart-name
p72
a(dp73
aasVB\ue10d Tuba
p74
(lp75
(lp76
g37
aVpart-name
p77
a(dp78
aasV                2
p79
(lp80
(lp81
g14
ag24
ag25
aasV                4
p82
(lp83
(lp84
g14
aVpart-name
p85
a(dp86
aasVLee Actor
p87
(lp88
(lp89
g14
aVcreator
p90
a(dp91
Vtype
p92
Vcomposer
p93
saasV1
p94
(lp95
(lp96
g14
ag24
ag25
aasV3
p97
(lp98
(lp99
g14
ag85
ag86
aasV2
p100
(lp101
(lp102
g14
aVpart-name
p103
a(dp104
aasVPrelude to a Tragedy
p105
(lp106
(lp107
g14
aVmovement-title
p108
a(dp109
aasVSoprano Saxophone
p110
(lp111
(lp112
g58
aVpart-name
p113
a(dp114
aasVBass Clarinet in Bb
p115
(lp116
(lp117
g14
aVpart-name
p118
a(dp119
aasVTimpani
p120
(lp121
(lp122
g14
aVpart-name
p123
a(dp124
aasVB\ue10d Trumpet
p125
(lp126
(lp127
g37
aVpart-name
p128
a(dp129
aasVSoprano
p130
(lp131
(lp132
g4
aVpart-name
p133
a(dp134
aa(lp135
g8
aVpart-name
p136
a(dp137
aasVVioloncello
p138
(lp139
(lp140
g14
aVpart-name
p141
a(dp142
aasVContrabass
p143
(lp144
(lp145
g14
aVpart-name
p146
a(dp147
aasVBaritone B.C.
p148
(lp149
(lp150
g37
aVpart-name
p151
a(dp152
aasVViolin I
p153
(lp154
(lp155
g14
aVpart-name
p156
a(dp157
aasVF Mellophone
p158
(lp159
(lp160
g37
aVpart-name
p161
a(dp162
aasVViolin II
p163
(lp164
(lp165
g14
aVpart-name
p166
a(dp167
aasVOboes
p168
(lp169
(lp170
g14
aVpart-name
p171
a(dp172
aasVViolins 2
p173
(lp174
(lp175
g18
aVpart-name
p176
a(dp177
aasVViolins 1
p178
(lp179
(lp180
g18
aVpart-name
p181
a(dp182
aasVPiccolo
p183
(lp184
(lp185
g14
aVpart-name
p186
a(dp187
aa(lp188
g37
aVpart-name
p189
a(dp190
aasVBaritone T.C.
p191
(lp192
(lp193
g37
aVpart-name
p194
a(dp195
aasVB\ue10d Clarinet
p196
(lp197
(lp198
g37
aVpart-name
p199
a(dp200
aasVTrombone
p201
(lp202
(lp203
g37
aVpart-name
p204
a(dp205
aasVViolin
p206
(lp207
(lp208
g58
aVpart-name
p209
a(dp210
aasVBass Drum
p211
(lp212
(lp213
g58
aVpart-name
p214
a(dp215
aasVFlutes
p216
(lp217
(lp218
g14
aVpart-name
p219
a(dp220
aasVBass
p221
(lp222
(lp223
g4
aVpart-name
p224
a(dp225
aa(lp226
g8
aVpart-name
p227
a(dp228
aasVHarp
p229
(lp230
(lp231
g14
aVpart-name
p232
a(dp233
aas.