(dp0
Vpart-name
p1
(lp2
(lp3
S'ActorPreludeSample.xml'
p4
aVPiccolo
p5
a(dp6
aa(lp7
g4
aVFlutes
p8
a(dp9
aa(lp10
g4
aVOboes
p11
a(dp12
aa(lp13
g4
aVEnglish Horn
p14
a(dp15
aa(lp16
g4
aVClarinets in Bb
p17
a(dp18
aa(lp19
g4
aVBass Clarinet in Bb
p20
a(dp21
aa(lp22
g4
aVBassoons
p23
a(dp24
aa(lp25
g4
aV1
p26
a(dp27
aa(lp28
g4
aV\u000a
p29
ag27
aa(lp30
g4
aV                2
p31
ag27
aa(lp32
g4
aV\u000a
p33
ag27
aa(lp34
g4
aV            
p35
ag27
aa(lp36
g4
aV3
p37
a(dp38
aa(lp39
g4
aV\u000a
p40
ag38
aa(lp41
g4
aV                4
p42
ag38
aa(lp43
g4
aV\u000a
p44
ag38
aa(lp45
g4
aV            
p46
ag38
aa(lp47
g4
aVTrumpets in C
p48
a(dp49
aa(lp50
g4
aV1
p51
a(dp52
aa(lp53
g4
aV\u000a
p54
ag52
aa(lp55
g4
aV                2
p56
ag52
aa(lp57
g4
aV\u000a
p58
ag52
aa(lp59
g4
aV            
p60
ag52
aa(lp61
g4
aV3
p62
a(dp63
aa(lp64
g4
aVTuba
p65
a(dp66
aa(lp67
g4
aVTimpani
p68
a(dp69
aa(lp70
g4
aV1
p71
a(dp72
aa(lp73
g4
aV2
p74
a(dp75
aa(lp76
g4
aVHarp
p77
a(dp78
aa(lp79
g4
aVViolin I
p80
a(dp81
aa(lp82
g4
aVViolin II
p83
a(dp84
aa(lp85
g4
aVViola
p86
a(dp87
aa(lp88
g4
aVVioloncello
p89
a(dp90
aa(lp91
g4
aVContrabass
p92
a(dp93
aa(lp94
S'Am_I_Wrong.xml'
p95
aVViolin
p96
a(dp97
aa(lp98
g95
aVSoprano Saxophone
p99
a(dp100
aa(lp101
g95
aVPiano
p102
a(dp103
aa(lp104
g95
aVBass Drum
p105
a(dp106
aa(lp107
S'Cant_Take_My_Eyes_Off_You.xml'
p108
aVPiccolo
p109
a(dp110
aa(lp111
g108
aVB\ue10d Clarinet
p112
a(dp113
aa(lp114
g108
aVAlto Saxophone
p115
a(dp116
aa(lp117
g108
aVB\ue10d Trumpet
p118
a(dp119
aa(lp120
g108
aVB\ue10d Trumpet
p121
a(dp122
aa(lp123
g108
aVF Mellophone
p124
a(dp125
aa(lp126
g108
aVTrombone
p127
a(dp128
aa(lp129
g108
aVTrombone
p130
a(dp131
aa(lp132
g108
aVBaritone B.C.
p133
a(dp134
aa(lp135
g108
aVBaritone T.C.
p136
a(dp137
aa(lp138
g108
aVB\ue10d Tuba
p139
a(dp140
aa(lp141
S'Ding_Dong_Merrily_On_High_Voice_SAB_3_verses.xml'
p142
aVSoprano
p143
a(dp144
aa(lp145
g142
aVAlto
p146
a(dp147
aa(lp148
g142
aVBass
p149
a(dp150
aa(lp151
S'Ib_-_Little_Dolls_Dream_Piano.xml'
p152
aVPiano
p153
a(dp154
aa(lp155
S'khiohio.xml'
p156
aVPiano
p157
a(dp158
aa(lp159
S'Le_Divin_Enfant_voice_SAB.xml'
p160
aVSoprano
p161
a(dp162
aa(lp163
g160
aVAlto
p164
a(dp165
aa(lp166
g160
aVBass
p167
a(dp168
aa(lp169
S'TwinkleTwinkle_Little_Star.xml'
p170
aVViolins 1
p171
a(dp172
aa(lp173
g170
aVViolins 2
p174
a(dp175
aa(lp176
g170
aVViolins 1
p177
a(dp178
aa(lp179
g170
aVViola
p180
a(dp181
aasVmovement-title
p182
(lp183
(lp184
g4
aVPrelude to a Tragedy
p185
a(dp186
aas.(dp0
Vpart-name
p1
(lp2
(lp3
S'ActorPreludeSample.xml'
p4
aVPiccolo
p5
a(dp6
aa(lp7
g4
aVFlutes
p8
a(dp9
aa(lp10
g4
aVOboes
p11
a(dp12
aa(lp13
g4
aVEnglish Horn
p14
a(dp15
aa(lp16
g4
aVClarinets in Bb
p17
a(dp18
aa(lp19
g4
aVBass Clarinet in Bb
p20
a(dp21
aa(lp22
g4
aVBassoons
p23
a(dp24
aa(lp25
g4
aV1
p26
a(dp27
aa(lp28
g4
aV\u000a
p29
ag27
aa(lp30
g4
aV                2
p31
ag27
aa(lp32
g4
aV\u000a
p33
ag27
aa(lp34
g4
aV            
p35
ag27
aa(lp36
g4
aV3
p37
a(dp38
aa(lp39
g4
aV\u000a
p40
ag38
aa(lp41
g4
aV                4
p42
ag38
aa(lp43
g4
aV\u000a
p44
ag38
aa(lp45
g4
aV            
p46
ag38
aa(lp47
g4
aVTrumpets in C
p48
a(dp49
aa(lp50
g4
aV1
p51
a(dp52
aa(lp53
g4
aV\u000a
p54
ag52
aa(lp55
g4
aV                2
p56
ag52
aa(lp57
g4
aV\u000a
p58
ag52
aa(lp59
g4
aV            
p60
ag52
aa(lp61
g4
aV3
p62
a(dp63
aa(lp64
g4
aVTuba
p65
a(dp66
aa(lp67
g4
aVTimpani
p68
a(dp69
aa(lp70
g4
aV1
p71
a(dp72
aa(lp73
g4
aV2
p74
a(dp75
aa(lp76
g4
aVHarp
p77
a(dp78
aa(lp79
g4
aVViolin I
p80
a(dp81
aa(lp82
g4
aVViolin II
p83
a(dp84
aa(lp85
g4
aVViola
p86
a(dp87
aa(lp88
g4
aVVioloncello
p89
a(dp90
aa(lp91
g4
aVContrabass
p92
a(dp93
aa(lp94
S'Am_I_Wrong.xml'
p95
aVViolin
p96
a(dp97
aa(lp98
g95
aVSoprano Saxophone
p99
a(dp100
aa(lp101
g95
aVPiano
p102
a(dp103
aa(lp104
g95
aVBass Drum
p105
a(dp106
aa(lp107
S'Cant_Take_My_Eyes_Off_You.xml'
p108
aVPiccolo
p109
a(dp110
aa(lp111
g108
aVB\ue10d Clarinet
p112
a(dp113
aa(lp114
g108
aVAlto Saxophone
p115
a(dp116
aa(lp117
g108
aVB\ue10d Trumpet
p118
a(dp119
aa(lp120
g108
aVB\ue10d Trumpet
p121
a(dp122
aa(lp123
g108
aVF Mellophone
p124
a(dp125
aa(lp126
g10(dp0
Vpart-name
p1
(lp2
(lp3
S'ActorPreludeSample.xml'
p4
aVPiccolo
p5
a(dp6
aa(lp7
g4
aVFlutes
p8
a(dp9
aa(lp10
g4
aVOboes
p11
a(dp12
aa(lp13
g4
aVEnglish Horn
p14
a(dp15
aa(lp16
g4
aVClarinets in Bb
p17
a(dp18
aa(lp19
g4
aVBass Clarinet in Bb
p20
a(dp21
aa(lp22
g4
aVBassoons
p23
a(dp24
aa(lp25
g4
aV1
p26
a(dp27
aa(lp28
g4
aV\u000a
p29
ag27
aa(lp30
g4
aV                2
p31
ag27
aa(lp32
g4
aV            
p33
ag27
aa(lp34
g4
aV3
p35
a(dp36
aa(lp37
g4
aV                4
p38
ag36
aa(lp39
g4
aVTrumpets in C
p40
a(dp41
aa(lp42
g4
aVTuba
p43
a(dp44
aa(lp45
g4
aVTimpani
p46
a(dp47
aa(lp48
g4
aV2
p49
a(dp50
aa(lp51
g4
aVHarp
p52
a(dp53
aa(lp54
g4
aVViolin I
p55
a(dp56
aa(lp57
g4
aVViolin II
p58
a(dp59
aa(lp60
g4
aVViola
p61
a(dp62
aa(lp63
g4
aVVioloncello
p64
a(dp65
aa(lp66
g4
aVContrabass
p67
a(dp68
aa(lp69
S'Am_I_Wrong.xml'
p70
aVViolin
p71
a(dp72
aa(lp73
g70
aVSoprano Saxophone
p74
a(dp75
aa(lp76
g70
aVPiano
p77
a(dp78
aa(lp79
g70
aVBass Drum
p80
a(dp81
aa(lp82
S'Cant_Take_My_Eyes_Off_You.xml'
p83
aVPiccolo
p84
a(dp85
aa(lp86
g83
aVB\ue10d Clarinet
p87
a(dp88
aa(lp89
g83
aVAlto Saxophone
p90
a(dp91
aa(lp92
g83
aVB\ue10d Trumpet
p93
a(dp94
aa(lp95
g83
aVF Mellophone
p96
a(dp97
aa(lp98
g83
aVTrombone
p99
a(dp100
aa(lp101
g83
aVBaritone B.C.
p102
a(dp103
aa(lp104
g83
aVBaritone T.C.
p105
a(dp106
aa(lp107
g83
aVB\ue10d Tuba
p108
a(dp109
aa(lp110
S'Ding_Dong_Merrily_On_High_Voice_SAB_3_verses.xml'
p111
aVSoprano
p112
a(dp113
aa(lp114
g111
aVAlto
p115
a(dp116
aa(lp117
g111
aVBass
p118
a(dp119
aa(lp120
S'Ib_-_Little_Dolls_Dream_Piano.xml'
p121
aVPiano
p122
a(dp123
aa(lp124
S'khiohio.xml'
p125
aVPiano
p126
a(dp127
aa(lp128
S'Le_Divin_Enfant_voice_SAB.xml'
p129
aVSoprano
p130
a(dp131
aa(lp132
g129
aVAlto
p133
a(dp134
aa(lp135
g129
aVBass
p136
a(dp137
aa(lp138
S'TwinkleTwinkle_Little_Star.xml'
p139
aVViolins 1
p140
a(dp141
aa(lp142
g139
aVViolins 2
p143
a(dp144
aa(lp145
g139
aVViola
p146
a(dp147
aasVmovement-title
p148
(lp149
(lp150
g4
aVPrelude to a Tragedy
p151
a(dp152
aas.o.xml'
p152
aVPiano
p153
a(dp154
aa(lp155
S'khiohio.xml'
p156
aVPiano
p157
a(dp158
aa(lp159
S'Le_Divin_Enfant_voice_SAB.xml'
p160
aVSoprano
p161
a(dp162
aa(lp163
g160
aVAlto
p164
a(dp165
aa(lp166
g160
aVBass
p167
a(dp168
aa(lp169
S'TwinkleTwinkle_Little_Star.xml'
p170
aVViolins 1
p171
a(dp172
aa(lp173
g170
aVViolins 2
p174
a(dp175
aa(lp176
g170
aVViolins 1
p177
a(dp178
aa(lp179
g170
aVViola
p180
a(dp181
aasVmovement-title
p182
(lp183
(lp184
g4
aVPrelude to a Tragedy
p185
a(dp186
aas.